; Function Attrs: mustprogress nounwind uwtable
define hidden void @_ZN14CompilerThreadD2Ev(ptr noundef nonnull align 8 dereferenceable(1880) %0) unnamed_addr #0 align 2 {
  store ptr getelementptr inbounds inrange(-16, 224) (i8, ptr @_ZTV14CompilerThread, i64 16), ptr %0, align 8
  %2 = getelementptr inbounds i8, ptr %0, i64 1800
  %3 = load ptr, ptr %2, align 8
  %4 = icmp eq ptr %3, null
  br i1 %4, label %6, label %5

5:                                                ; preds = %1
  tail call void @_Z8FreeHeapPv(ptr noundef nonnull %3) #6
  br label %6

6:                                                ; preds = %5, %1
  %7 = getelementptr inbounds i8, ptr %0, i64 1872
  %8 = load ptr, ptr %7, align 8
  %9 = icmp eq ptr %8, null
  br i1 %9, label %11, label %10

10:                                               ; preds = %6
  tail call void @_Z8FreeHeapPv(ptr noundef nonnull %8) #6
  br label %11

11:                                               ; preds = %10, %6
  tail call void @_ZN10JavaThreadD2Ev(ptr noundef nonnull align 8 dereferenceable(1800) %0) #6
  ret void
}